target datalayout = "e-m:e-p270:32:32-p271:32:32-p272:64:64-i64:64-i128:128-f80:128-n8:16:32:64-S128"
target triple = "x86_64-pc-linux-gnu"

%struct.display_data = type { i64, i32, ptr, i8, i32, ptr, ptr, ptr, ptr, ptr, ptr, ptr, ptr }
%struct.signal_params_t = type { ptr, ptr }

@enter_key_in_effect = internal global i32 0, align 4

; Function Attrs: nounwind uwtable
define dso_local i32 @row_activated(ptr noundef %0, ptr noundef %1, ptr noundef %2, ptr noundef %3) #0 {
  %5 = alloca ptr, align 8
  %6 = alloca ptr, align 8
  %7 = alloca ptr, align 8
  %8 = alloca ptr, align 8
  %9 = alloca ptr, align 8
  store ptr %0, ptr %5, align 8
  store ptr %1, ptr %6, align 8
  store ptr %2, ptr %7, align 8
  store ptr %3, ptr %8, align 8
  call void @llvm.lifetime.start.p0(i64 8, ptr %9) #11
  %10 = load ptr, ptr %8, align 8
  %11 = getelementptr inbounds nuw %struct.signal_params_t, ptr %10, i32 0, i32 0
  %12 = load ptr, ptr %11, align 8
  store ptr %12, ptr %9, align 8
  %13 = load ptr, ptr %9, align 8
  %14 = getelementptr inbounds nuw %struct.display_data, ptr %13, i32 0, i32 10
  %15 = load ptr, ptr %14, align 8
  %16 = load ptr, ptr %5, align 8
  %17 = load ptr, ptr %8, align 8
  %18 = getelementptr inbounds nuw %struct.signal_params_t, ptr %17, i32 0, i32 1
  %19 = load ptr, ptr %18, align 8
  %20 = load ptr, ptr %19, align 8
  %21 = load ptr, ptr %6, align 8
  call void %15(ptr noundef %16, ptr noundef %20, ptr noundef %21, i32 noundef 1)
  %22 = load i32, ptr @enter_key_in_effect, align 4
  %23 = icmp ne i32 %22, 0
  br i1 %23, label %30, label %24

24:                                               ; preds = %4
  %25 = load ptr, ptr %9, align 8
  %26 = getelementptr inbounds nuw %struct.display_data, ptr %25, i32 0, i32 10
  %27 = load ptr, ptr %26, align 8
  %28 = load ptr, ptr %5, align 8
  %29 = load ptr, ptr %6, align 8
  call void %27(ptr noundef %28, ptr noundef null, ptr noundef %29, i32 noundef 3)
  br label %30

30:                                               ; preds = %24, %4
  store i32 0, ptr @enter_key_in_effect, align 4
  call void @llvm.lifetime.end.p0(i64 8, ptr %9) #11
  ret i32 0
}