; Function Attrs: nounwind uwtable
define dso_local noundef i32 @row_activated(ptr noundef %0, ptr noundef %1, ptr readnone captures(none) %2, ptr noundef readonly captures(none) %3) #2 {
  %5 = load ptr, ptr %3, align 8
  %6 = getelementptr inbounds nuw i8, ptr %5, i64 72
  %7 = load ptr, ptr %6, align 8
  %8 = getelementptr inbounds nuw i8, ptr %3, i64 8
  %9 = load ptr, ptr %8, align 8
  %10 = load ptr, ptr %9, align 8
  tail call void %7(ptr noundef %0, ptr noundef %10, ptr noundef %1, i32 noundef 1) #16
  %.b = load i1, ptr @enter_key_in_effect, align 4
  br i1 %.b, label %13, label %11

11:                                               ; preds = %4
  %12 = load ptr, ptr %6, align 8
  tail call void %12(ptr noundef %0, ptr noundef null, ptr noundef %1, i32 noundef 3) #16
  br label %13

13:                                               ; preds = %11, %4
  store i1 false, ptr @enter_key_in_effect, align 4
  ret i32 0
}